; Function Attrs: mustprogress nofree norecurse nosync nounwind willreturn memory(readwrite, inaccessiblemem: none) uwtable
define void @var_set_partA(ptr noundef readonly captures(none) %0, i32 noundef %1, i32 noundef %2) local_unnamed_addr #1 {
  %4 = getelementptr inbounds nuw i8, ptr %0, i64 232
  %5 = load ptr, ptr %4, align 8
  %6 = sext i32 %1 to i64
  %7 = getelementptr inbounds %struct.varinfo2_t, ptr %5, i64 %6
  %8 = trunc i32 %2 to i8
  %9 = load i8, ptr %7, align 4
  %10 = shl i8 %8, 1
  %11 = and i8 %10, 2
  %12 = and i8 %9, -3
  %13 = or disjoint i8 %12, %11
  store i8 %13, ptr %7, align 4
  ret void
}